target datalayout = "e-m:e-p270:32:32-p271:32:32-p272:64:64-i64:64-i128:128-f80:128-n8:16:32:64-S128"
target triple = "x86_64-pc-linux-gnu"

%struct.asn1_string_st = type { i32, i32, ptr, i64 }

; Function Attrs: nounwind uwtable
define i32 @ASN1_ENUMERATED_get_int64(ptr noundef %0, ptr noundef %1) #0 {
  %3 = alloca ptr, align 8
  %4 = alloca ptr, align 8
  store ptr %0, ptr %3, align 8, !tbaa !28
  store ptr %1, ptr %4, align 8, !tbaa !3
  %5 = load ptr, ptr %3, align 8, !tbaa !28
  %6 = load ptr, ptr %4, align 8, !tbaa !3
  %7 = call i32 @asn1_string_get_int64(ptr noundef %5, ptr noundef %6, i32 noundef 10)
  ret i32 %7
}

; Function Attrs: nounwind uwtable
define i64 @ASN1_ENUMERATED_get(ptr noundef %0) #0 {
  %2 = alloca i64, align 8
  %3 = alloca ptr, align 8
  %4 = alloca i32, align 4
  %5 = alloca i64, align 8
  %6 = alloca i32, align 4
  store ptr %0, ptr %3, align 8, !tbaa !3
  call void @llvm.lifetime.start.p0(i64 4, ptr %4) #4
  call void @llvm.lifetime.start.p0(i64 8, ptr %5) #4
  %7 = load ptr, ptr %3, align 8, !tbaa !3
  %8 = icmp eq ptr %7, null
  br i1 %8, label %9, label %10

9:                                                ; preds = %1
  store i64 0, ptr %2, align 8
  store i32 1, ptr %6, align 4
  br label %38

10:                                               ; preds = %1
  %11 = load ptr, ptr %3, align 8, !tbaa !3
  %12 = getelementptr inbounds nuw %struct.asn1_string_st, ptr %11, i32 0, i32 1
  %13 = load i32, ptr %12, align 4, !tbaa !8
  %14 = and i32 %13, -257
  %15 = icmp ne i32 %14, 10
  br i1 %15, label %16, label %17

16:                                               ; preds = %10
  store i64 -1, ptr %2, align 8
  store i32 1, ptr %6, align 4
  br label %38

17:                                               ; preds = %10
  %18 = load ptr, ptr %3, align 8, !tbaa !3
  %19 = getelementptr inbounds nuw %struct.asn1_string_st, ptr %18, i32 0, i32 0
  %20 = load i32, ptr %19, align 8, !tbaa !17
  %21 = icmp sgt i32 %20, 8
  br i1 %21, label %22, label %23

22:                                               ; preds = %17
  store i64 4294967295, ptr %2, align 8
  store i32 1, ptr %6, align 4
  br label %38

23:                                               ; preds = %17
  %24 = load ptr, ptr %3, align 8, !tbaa !3
  %25 = call i32 @ASN1_ENUMERATED_get_int64(ptr noundef %5, ptr noundef %24)
  store i32 %25, ptr %4, align 4, !tbaa !13
  %26 = load i32, ptr %4, align 4, !tbaa !13
  %27 = icmp eq i32 %26, 0
  br i1 %27, label %28, label %29

28:                                               ; preds = %23
  store i64 -1, ptr %2, align 8
  store i32 1, ptr %6, align 4
  br label %38

29:                                               ; preds = %23
  %30 = load i64, ptr %5, align 8, !tbaa !19
  %31 = icmp sgt i64 %30, 9223372036854775807
  br i1 %31, label %35, label %32

32:                                               ; preds = %29
  %33 = load i64, ptr %5, align 8, !tbaa !19
  %34 = icmp slt i64 %33, -9223372036854775808
  br i1 %34, label %35, label %36

35:                                               ; preds = %32, %29
  store i64 -1, ptr %2, align 8
  store i32 1, ptr %6, align 4
  br label %38

36:                                               ; preds = %32
  %37 = load i64, ptr %5, align 8, !tbaa !19
  store i64 %37, ptr %2, align 8
  store i32 1, ptr %6, align 4
  br label %38

38:                                               ; preds = %36, %35, %28, %22, %16, %9
  call void @llvm.lifetime.end.p0(i64 8, ptr %5) #4
  call void @llvm.lifetime.end.p0(i64 4, ptr %4) #4
  %39 = load i64, ptr %2, align 8
  ret i64 %39
}