; Function Attrs: nounwind uwtable
define i64 @ASN1_ENUMERATED_get(ptr noundef captures(address_is_null) %0) local_unnamed_addr #0 {
  %2 = alloca i64, align 8
  call void @llvm.lifetime.start.p0(i64 8, ptr nonnull %2) #6
  %3 = icmp eq ptr %0, null
  br i1 %3, label %15, label %4

4:                                                ; preds = %1
  %5 = getelementptr inbounds nuw i8, ptr %0, i64 4
  %6 = load i32, ptr %5, align 4, !tbaa !3
  %7 = and i32 %6, -257
  %.not = icmp eq i32 %7, 10
  br i1 %.not, label %8, label %15

8:                                                ; preds = %4
  %9 = load i32, ptr %0, align 8, !tbaa !12
  %10 = icmp sgt i32 %9, 8
  br i1 %10, label %15, label %11

11:                                               ; preds = %8
  %12 = call fastcc range(i32 0, 2) i32 @asn1_string_get_int64(ptr noundef nonnull %2, ptr noundef nonnull %0, i32 noundef 10)
  %13 = icmp eq i32 %12, 0
  %14 = load i64, ptr %2, align 8
  %spec.select = select i1 %13, i64 -1, i64 %14
  br label %15

15:                                               ; preds = %11, %8, %4, %1
  %.0 = phi i64 [ 0, %1 ], [ -1, %4 ], [ 4294967295, %8 ], [ %spec.select, %11 ]
  call void @llvm.lifetime.end.p0(i64 8, ptr nonnull %2) #6
  ret i64 %.0
}